; Function Attrs: mustprogress nofree norecurse nosync nounwind memory(read, argmem: readwrite, inaccessiblemem: none) uwtable
define internal fastcc noundef range(i32 -2147483648, 2147483647) i32 @_ZN2cvL9Sklansky_IilEEiPPNS_6Point_IT_EEiiPiii(ptr noundef readonly captures(none) %0, i32 noundef range(i32 0, 2147483647) %1, i32 noundef %2, ptr noundef captures(none) initializes((0, 4)) %3, i32 noundef range(i32 -1, 2) %4, i32 noundef range(i32 -1, 2) %5) unnamed_addr #6 {
  %7 = icmp sgt i32 %2, %1
  %8 = select i1 %7, i32 1, i32 -1
  %9 = add nsw i32 %8, %1
  %10 = add nsw i32 %9, %8
  %11 = icmp eq i32 %1, %2
  br i1 %11, label %28, label %12

12:                                               ; preds = %6
  %13 = zext nneg i32 %1 to i64
  %14 = getelementptr inbounds nuw ptr, ptr %0, i64 %13
  %15 = load ptr, ptr %14, align 8, !tbaa !36
  %16 = load i32, ptr %15, align 4, !tbaa !49
  %17 = sext i32 %2 to i64
  %18 = getelementptr inbounds ptr, ptr %0, i64 %17
  %19 = load ptr, ptr %18, align 8, !tbaa !36
  %20 = load i32, ptr %19, align 4, !tbaa !49
  %21 = icmp eq i32 %16, %20
  br i1 %21, label %22, label %29

22:                                               ; preds = %12
  %23 = getelementptr inbounds nuw i8, ptr %15, i64 4
  %24 = load i32, ptr %23, align 4, !tbaa !40
  %25 = getelementptr inbounds nuw i8, ptr %19, i64 4
  %26 = load i32, ptr %25, align 4, !tbaa !40
  %27 = icmp eq i32 %24, %26
  br i1 %27, label %28, label %29

28:                                               ; preds = %22, %6
  store i32 %1, ptr %3, align 4, !tbaa !50
  br label %._crit_edge

29:                                               ; preds = %22, %12
  store i32 %1, ptr %3, align 4, !tbaa !50
  %30 = getelementptr inbounds nuw i8, ptr %3, i64 4
  store i32 %9, ptr %30, align 4, !tbaa !50
  %31 = getelementptr inbounds nuw i8, ptr %3, i64 8
  store i32 %10, ptr %31, align 4, !tbaa !50
  %32 = add nsw i32 %8, %2
  %invariant.gep = getelementptr i8, ptr %3, i64 -4
  %.not103 = icmp eq i32 %9, %2
  br i1 %.not103, label %._crit_edge, label %.lr.ph

.lr.ph:                                           ; preds = %29, %90
  %.089107 = phi i32 [ %.2, %90 ], [ %1, %29 ]
  %.090106 = phi i32 [ %.292, %90 ], [ %9, %29 ]
  %.093105 = phi i32 [ %.295, %90 ], [ %10, %29 ]
  %.096104 = phi i32 [ %.298, %90 ], [ 3, %29 ]
  %33 = sext i32 %.090106 to i64
  %34 = getelementptr inbounds ptr, ptr %0, i64 %33
  %35 = load ptr, ptr %34, align 8, !tbaa !36
  %36 = getelementptr inbounds nuw i8, ptr %35, i64 4
  %37 = load i32, ptr %36, align 4, !tbaa !40
  %38 = sext i32 %.093105 to i64
  %39 = getelementptr inbounds ptr, ptr %0, i64 %38
  %40 = load ptr, ptr %39, align 8, !tbaa !36
  %41 = getelementptr inbounds nuw i8, ptr %40, i64 4
  %42 = load i32, ptr %41, align 4, !tbaa !40
  %43 = sub nsw i32 %42, %37
  %.lobit.neg = ashr i32 %43, 31
  %isnotnull = icmp ne i32 %42, %37
  %isnotnull.zext = zext i1 %isnotnull to i32
  %44 = or i32 %.lobit.neg, %isnotnull.zext
  %.not101 = icmp eq i32 %44, %4
  br i1 %.not101, label %87, label %45

45:                                               ; preds = %.lr.ph
  %46 = load i32, ptr %35, align 4, !tbaa !49
  %47 = sext i32 %.089107 to i64
  %48 = getelementptr inbounds ptr, ptr %0, i64 %47
  %49 = load ptr, ptr %48, align 8, !tbaa !36
  %50 = load i32, ptr %49, align 4, !tbaa !49
  %51 = sub nsw i32 %46, %50
  %52 = load i32, ptr %40, align 4, !tbaa !49
  %53 = sub nsw i32 %52, %46
  %54 = getelementptr inbounds nuw i8, ptr %49, i64 4
  %55 = load i32, ptr %54, align 4, !tbaa !40
  %56 = sub nsw i32 %37, %55
  %57 = sext i32 %56 to i64
  %58 = sext i32 %53 to i64
  %59 = mul nsw i64 %57, %58
  %60 = sext i32 %51 to i64
  %61 = sext i32 %43 to i64
  %62 = mul nsw i64 %60, %61
  %63 = sub nsw i64 %59, %62
  %64 = icmp sgt i64 %63, 0
  %65 = zext i1 %64 to i32
  %.lobit.neg102 = ashr i64 %63, 63
  %.neg = trunc nsw i64 %.lobit.neg102 to i32
  %66 = add nsw i32 %.neg, %65
  %67 = icmp eq i32 %66, %5
  br i1 %67, label %68, label %76

68:                                               ; preds = %45
  %69 = icmp ne i32 %46, %50
  %70 = icmp ne i32 %37, %55
  %or.cond = or i1 %69, %70
  br i1 %or.cond, label %71, label %76

71:                                               ; preds = %68
  %72 = add nsw i32 %.093105, %8
  %73 = sext i32 %.096104 to i64
  %74 = getelementptr inbounds i32, ptr %3, i64 %73
  store i32 %72, ptr %74, align 4, !tbaa !50
  %75 = add nsw i32 %.096104, 1
  br label %90

76:                                               ; preds = %68, %45
  %77 = icmp eq i32 %.089107, %1
  br i1 %77, label %78, label %80

78:                                               ; preds = %76
  store i32 %.093105, ptr %30, align 4, !tbaa !50
  %79 = add nsw i32 %.093105, %8
  store i32 %79, ptr %31, align 4, !tbaa !50
  br label %90

80:                                               ; preds = %76
  %81 = sext i32 %.096104 to i64
  %82 = getelementptr i32, ptr %3, i64 %81
  %83 = getelementptr i8, ptr %82, i64 -8
  store i32 %.093105, ptr %83, align 4, !tbaa !50
  %84 = getelementptr i8, ptr %82, i64 -16
  %85 = load i32, ptr %84, align 4, !tbaa !50
  %86 = add nsw i32 %.096104, -1
  br label %90

87:                                               ; preds = %.lr.ph
  %88 = add nsw i32 %.093105, %8
  %89 = sext i32 %.096104 to i64
  %gep = getelementptr i32, ptr %invariant.gep, i64 %89
  store i32 %88, ptr %gep, align 4, !tbaa !50
  br label %90

90:                                               ; preds = %71, %80, %78, %87
  %.298 = phi i32 [ %.096104, %87 ], [ %75, %71 ], [ %.096104, %78 ], [ %86, %80 ]
  %.295 = phi i32 [ %88, %87 ], [ %72, %71 ], [ %79, %78 ], [ %.093105, %80 ]
  %.292 = phi i32 [ %.090106, %87 ], [ %.093105, %71 ], [ %.093105, %78 ], [ %.089107, %80 ]
  %.2 = phi i32 [ %.089107, %87 ], [ %.090106, %71 ], [ %1, %78 ], [ %85, %80 ]
  %.not = icmp eq i32 %.295, %32
  br i1 %.not, label %._crit_edge.loopexit, label %.lr.ph, !llvm.loop !66

._crit_edge.loopexit:                             ; preds = %90
  %91 = add nsw i32 %.298, -1
  br label %._crit_edge

._crit_edge:                                      ; preds = %29, %._crit_edge.loopexit, %28
  %.0 = phi i32 [ 1, %28 ], [ 2, %29 ], [ %91, %._crit_edge.loopexit ]
  ret i32 %.0
}